target datalayout = "e-m:e-p270:32:32-p271:32:32-p272:64:64-i64:64-i128:128-f80:128-n8:16:32:64-S128"
target triple = "x86_64-pc-linux-gnu"

%union.pthread_mutex_t = type { %struct.__pthread_mutex_s }
%struct.__pthread_mutex_s = type { i32, i32, i32, i32, i32, i16, i16, %struct.__pthread_internal_list }
%struct.__pthread_internal_list = type { ptr, ptr }

@storage_write_plock = internal global %union.pthread_mutex_t zeroinitializer, align 8
@storage_write_tid = internal global i64 0, align 8
@stderr = external global ptr, align 8
@.str.31 = private unnamed_addr constant [39 x i8] c"Can't create storage_write thread: %s\0A\00", align 1
@.str.32 = private unnamed_addr constant [13 x i8] c"mc-ext-write\00", align 1

; Function Attrs: nounwind uwtable
define dso_local i32 @start_storage_write_thread(ptr noundef %0) #0 {
  %2 = alloca i32, align 4
  %3 = alloca ptr, align 8
  %4 = alloca i32, align 4
  %5 = alloca i32, align 4
  store ptr %0, ptr %3, align 8, !tbaa !4
  call void @llvm.lifetime.start.p0(i64 4, ptr %4) #13
  %6 = call i32 @pthread_mutex_init(ptr noundef @storage_write_plock, ptr noundef null) #13
  %7 = load ptr, ptr %3, align 8, !tbaa !4
  %8 = call i32 @pthread_create(ptr noundef @storage_write_tid, ptr noundef null, ptr noundef @storage_write_thread, ptr noundef %7) #13
  store i32 %8, ptr %4, align 4, !tbaa !17
  %9 = icmp ne i32 %8, 0
  br i1 %9, label %10, label %15

10:                                               ; preds = %1
  %11 = load ptr, ptr @stderr, align 8, !tbaa !159
  %12 = load i32, ptr %4, align 4, !tbaa !17
  %13 = call ptr @strerror(i32 noundef %12) #13
  %14 = call i32 (ptr, ptr, ...) @fprintf(ptr noundef %11, ptr noundef @.str.31, ptr noundef %13) #13
  store i32 -1, ptr %2, align 4
  store i32 1, ptr %5, align 4
  br label %17

15:                                               ; preds = %1
  %16 = load i64, ptr @storage_write_tid, align 8, !tbaa !75
  call void @thread_setname(i64 noundef %16, ptr noundef @.str.32)
  store i32 0, ptr %2, align 4
  store i32 1, ptr %5, align 4
  br label %17

17:                                               ; preds = %15, %10
  call void @llvm.lifetime.end.p0(i64 4, ptr %4) #13
  %18 = load i32, ptr %2, align 4
  ret i32 %18
}