; Function Attrs: nounwind uwtable
define dso_local range(i32 -1, 1) i32 @start_storage_write_thread(ptr noundef %0) local_unnamed_addr #0 {
  %2 = tail call i32 @pthread_mutex_init(ptr noundef nonnull @storage_write_plock, ptr noundef null) #21
  %3 = tail call i32 @pthread_create(ptr noundef nonnull @storage_write_tid, ptr noundef null, ptr noundef nonnull @storage_write_thread, ptr noundef %0) #21
  %.not = icmp eq i32 %3, 0
  br i1 %.not, label %8, label %4

4:                                                ; preds = %1
  %5 = load ptr, ptr @stderr, align 8, !tbaa !156
  %6 = tail call ptr @strerror(i32 noundef %3) #21
  %7 = tail call i32 (ptr, ptr, ...) @fprintf(ptr noundef %5, ptr noundef nonnull @.str.31, ptr noundef %6) #24
  br label %10

8:                                                ; preds = %1
  %9 = load i64, ptr @storage_write_tid, align 8, !tbaa !158
  tail call void @thread_setname(i64 noundef %9, ptr noundef nonnull @.str.32) #21
  br label %10

10:                                               ; preds = %8, %4
  %.0 = phi i32 [ -1, %4 ], [ 0, %8 ]
  ret i32 %.0
}